target datalayout = "e-m:e-p270:32:32-p271:32:32-p272:64:64-i64:64-i128:128-f80:128-n8:16:32:64-S128"
target triple = "x86_64-pc-linux-gnu"

%struct.pack_list_t = type { ptr, i32, i32, i32, i32, ptr, i16, i32 }
%struct.buf_t = type { i32, ptr, i32, i32, i8, i8 }

@.str.7 = private unnamed_addr constant [24 x i8] c"%s: size limit exceeded\00", align 1
@__func__._foreach_pack_list = private unnamed_addr constant [19 x i8] c"_foreach_pack_list\00", align 1

; Function Attrs: nounwind uwtable
define internal i32 @_foreach_pack_list(ptr noundef %0, ptr noundef %1) #0 {
  %3 = alloca i32, align 4
  %4 = alloca ptr, align 8
  %5 = alloca ptr, align 8
  %6 = alloca ptr, align 8
  %7 = alloca ptr, align 8
  %8 = alloca i32, align 4
  store ptr %0, ptr %4, align 8
  store ptr %1, ptr %5, align 8
  call void @llvm.lifetime.start.p0(i64 8, ptr %6) #6
  %9 = load ptr, ptr %4, align 8
  store ptr %9, ptr %6, align 8
  call void @llvm.lifetime.start.p0(i64 8, ptr %7) #6
  %10 = load ptr, ptr %5, align 8
  store ptr %10, ptr %7, align 8
  %11 = load ptr, ptr %7, align 8
  %12 = getelementptr inbounds nuw %struct.pack_list_t, ptr %11, i32 0, i32 5
  %13 = load ptr, ptr %12, align 8
  %14 = load ptr, ptr %6, align 8
  %15 = load ptr, ptr %7, align 8
  %16 = getelementptr inbounds nuw %struct.pack_list_t, ptr %15, i32 0, i32 6
  %17 = load i16, ptr %16, align 8
  %18 = load ptr, ptr %7, align 8
  %19 = getelementptr inbounds nuw %struct.pack_list_t, ptr %18, i32 0, i32 0
  %20 = load ptr, ptr %19, align 8
  call void %13(ptr noundef %14, i16 noundef zeroext %17, ptr noundef %20)
  %21 = load ptr, ptr %7, align 8
  %22 = getelementptr inbounds nuw %struct.pack_list_t, ptr %21, i32 0, i32 0
  %23 = load ptr, ptr %22, align 8
  %24 = getelementptr inbounds nuw %struct.buf_t, ptr %23, i32 0, i32 2
  %25 = load i32, ptr %24, align 8
  %26 = load ptr, ptr %7, align 8
  %27 = getelementptr inbounds nuw %struct.pack_list_t, ptr %26, i32 0, i32 4
  %28 = load i32, ptr %27, align 4
  %29 = icmp ugt i32 %25, %28
  br i1 %29, label %30, label %54

30:                                               ; preds = %2
  %31 = call i32 (ptr, ...) @error(ptr noundef @.str.7, ptr noundef @__func__._foreach_pack_list)
  %32 = load ptr, ptr %7, align 8
  %33 = getelementptr inbounds nuw %struct.pack_list_t, ptr %32, i32 0, i32 2
  %34 = load i32, ptr %33, align 4
  %35 = load ptr, ptr %7, align 8
  %36 = getelementptr inbounds nuw %struct.pack_list_t, ptr %35, i32 0, i32 0
  %37 = load ptr, ptr %36, align 8
  %38 = getelementptr inbounds nuw %struct.buf_t, ptr %37, i32 0, i32 3
  store i32 %34, ptr %38, align 4
  %39 = load ptr, ptr %7, align 8
  %40 = getelementptr inbounds nuw %struct.pack_list_t, ptr %39, i32 0, i32 1
  %41 = load i32, ptr %40, align 8
  %42 = load ptr, ptr %7, align 8
  %43 = getelementptr inbounds nuw %struct.pack_list_t, ptr %42, i32 0, i32 0
  %44 = load ptr, ptr %43, align 8
  call void @pack32(i32 noundef %41, ptr noundef %44)
  %45 = load ptr, ptr %7, align 8
  %46 = getelementptr inbounds nuw %struct.pack_list_t, ptr %45, i32 0, i32 3
  %47 = load i32, ptr %46, align 8
  %48 = load ptr, ptr %7, align 8
  %49 = getelementptr inbounds nuw %struct.pack_list_t, ptr %48, i32 0, i32 0
  %50 = load ptr, ptr %49, align 8
  %51 = getelementptr inbounds nuw %struct.buf_t, ptr %50, i32 0, i32 3
  store i32 %47, ptr %51, align 4
  %52 = load ptr, ptr %7, align 8
  %53 = getelementptr inbounds nuw %struct.pack_list_t, ptr %52, i32 0, i32 7
  store i32 7006, ptr %53, align 4
  store i32 -1, ptr %3, align 4
  store i32 1, ptr %8, align 4
  br label %66

54:                                               ; preds = %2
  %55 = load ptr, ptr %7, align 8
  %56 = getelementptr inbounds nuw %struct.pack_list_t, ptr %55, i32 0, i32 0
  %57 = load ptr, ptr %56, align 8
  %58 = getelementptr inbounds nuw %struct.buf_t, ptr %57, i32 0, i32 3
  %59 = load i32, ptr %58, align 4
  %60 = load ptr, ptr %7, align 8
  %61 = getelementptr inbounds nuw %struct.pack_list_t, ptr %60, i32 0, i32 3
  store i32 %59, ptr %61, align 8
  %62 = load ptr, ptr %7, align 8
  %63 = getelementptr inbounds nuw %struct.pack_list_t, ptr %62, i32 0, i32 1
  %64 = load i32, ptr %63, align 8
  %65 = add nsw i32 %64, 1
  store i32 %65, ptr %63, align 8
  store i32 0, ptr %3, align 4
  store i32 1, ptr %8, align 4
  br label %66

66:                                               ; preds = %54, %30
  call void @llvm.lifetime.end.p0(i64 8, ptr %7) #6
  call void @llvm.lifetime.end.p0(i64 8, ptr %6) #6
  %67 = load i32, ptr %3, align 4
  ret i32 %67
}