; Function Attrs: nounwind uwtable
define internal range(i32 -1, 1) i32 @_foreach_pack_list(ptr noundef %0, ptr noundef captures(none) %1) #0 {
  %3 = getelementptr inbounds nuw i8, ptr %1, i64 24
  %4 = load ptr, ptr %3, align 8
  %5 = getelementptr inbounds nuw i8, ptr %1, i64 32
  %6 = load i16, ptr %5, align 8
  %7 = load ptr, ptr %1, align 8
  tail call void %4(ptr noundef %0, i16 noundef zeroext %6, ptr noundef %7) #7
  %8 = load ptr, ptr %1, align 8
  %9 = getelementptr inbounds nuw i8, ptr %8, i64 16
  %10 = load i32, ptr %9, align 8
  %11 = getelementptr inbounds nuw i8, ptr %1, i64 20
  %12 = load i32, ptr %11, align 4
  %13 = icmp ugt i32 %10, %12
  br i1 %13, label %14, label %28

14:                                               ; preds = %2
  %15 = tail call i32 (ptr, ...) @error(ptr noundef nonnull @.str.7, ptr noundef nonnull @__func__._foreach_pack_list) #7
  %16 = getelementptr inbounds nuw i8, ptr %1, i64 12
  %17 = load i32, ptr %16, align 4
  %18 = load ptr, ptr %1, align 8
  %19 = getelementptr inbounds nuw i8, ptr %18, i64 20
  store i32 %17, ptr %19, align 4
  %20 = getelementptr inbounds nuw i8, ptr %1, i64 8
  %21 = load i32, ptr %20, align 8
  %22 = load ptr, ptr %1, align 8
  tail call void @pack32(i32 noundef %21, ptr noundef %22) #7
  %23 = getelementptr inbounds nuw i8, ptr %1, i64 16
  %24 = load i32, ptr %23, align 8
  %25 = load ptr, ptr %1, align 8
  %26 = getelementptr inbounds nuw i8, ptr %25, i64 20
  store i32 %24, ptr %26, align 4
  %27 = getelementptr inbounds nuw i8, ptr %1, i64 36
  store i32 7006, ptr %27, align 4
  br label %35

28:                                               ; preds = %2
  %29 = getelementptr inbounds nuw i8, ptr %8, i64 20
  %30 = load i32, ptr %29, align 4
  %31 = getelementptr inbounds nuw i8, ptr %1, i64 16
  store i32 %30, ptr %31, align 8
  %32 = getelementptr inbounds nuw i8, ptr %1, i64 8
  %33 = load i32, ptr %32, align 8
  %34 = add nsw i32 %33, 1
  store i32 %34, ptr %32, align 8
  br label %35

35:                                               ; preds = %28, %14
  %.0 = phi i32 [ -1, %14 ], [ 0, %28 ]
  ret i32 %.0
}